; Function Attrs: nounwind sspstrong uwtable
define internal i64 @ossl_ssl_set_hostname(i64 noundef %0, i64 noundef %1) #0 {
  %3 = alloca i64, align 8
  store i64 %1, ptr %3, align 8, !tbaa !10
  %4 = tail call ptr @rb_check_typeddata(i64 noundef %0, ptr noundef nonnull @ossl_ssl_type) #9
  %.not = icmp eq ptr %4, null
  br i1 %.not, label %5, label %7

5:                                                ; preds = %2
  %6 = load i64, ptr @rb_eRuntimeError, align 8, !tbaa !10
  tail call void (i64, ptr, ...) @ossl_raise(i64 noundef %6, ptr noundef nonnull @.str.267) #10
  unreachable

7:                                                ; preds = %2
  %8 = icmp eq i64 %1, 4
  br i1 %8, label %11, label %9

9:                                                ; preds = %7
  %10 = call ptr @rb_string_value_cstr(ptr noundef nonnull %3) #9
  br label %11

11:                                               ; preds = %9, %7
  %.0 = phi ptr [ null, %7 ], [ %10, %9 ]
  %12 = call i64 @SSL_ctrl(ptr noundef nonnull %4, i32 noundef 55, i64 noundef 0, ptr noundef %.0) #9
  %.not5 = icmp eq i64 %12, 0
  br i1 %.not5, label %13, label %15

13:                                               ; preds = %11
  %14 = load i64, ptr @eSSLError, align 8, !tbaa !10
  call void (i64, ptr, ...) @ossl_raise(i64 noundef %14, ptr noundef null) #10
  unreachable

15:                                               ; preds = %11
  %16 = load i64, ptr @id_i_hostname, align 8, !tbaa !10
  %17 = load i64, ptr %3, align 8, !tbaa !10
  %18 = call i64 @rb_ivar_set(i64 noundef %0, i64 noundef %16, i64 noundef %17) #9
  %19 = load i64, ptr %3, align 8, !tbaa !10
  ret i64 %19
}